target datalayout = "e-m:e-p270:32:32-p271:32:32-p272:64:64-i64:64-i128:128-f80:128-n8:16:32:64-S128"
target triple = "x86_64-pc-linux-gnu"

%struct.Abc_Ntk_t_ = type { i32, i32, ptr, ptr, ptr, ptr, ptr, ptr, ptr, ptr, ptr, ptr, ptr, [11 x i32], i32, i32, i32, i32, ptr, i32, ptr, ptr, i32, i32, i32, double, i32, %struct.Vec_Int_t_, ptr, ptr, ptr, ptr, ptr, float, i32, ptr, ptr, ptr, ptr, ptr, ptr, ptr, ptr, ptr, ptr, ptr, ptr, ptr, ptr, ptr, ptr, ptr, ptr, ptr, ptr, ptr, ptr }
%struct.Vec_Int_t_ = type { i32, i32, ptr }
%struct.Abc_Obj_t_ = type { ptr, ptr, i32, i32, %struct.Vec_Int_t_, %struct.Vec_Int_t_, %union.anon, %union.anon.0 }
%union.anon = type { ptr }
%union.anon.0 = type { ptr }
%struct.Vec_Ptr_t_ = type { i32, i32, ptr }

; Function Attrs: inlinehint nounwind uwtable
define internal ptr @Abc_ObjFanin(ptr noundef %0, i32 noundef %1) #2 {
  %3 = alloca ptr, align 8
  %4 = alloca i32, align 4
  store ptr %0, ptr %3, align 8, !tbaa !29
  store i32 %1, ptr %4, align 4, !tbaa !12
  %5 = load ptr, ptr %3, align 8, !tbaa !29
  %6 = getelementptr inbounds nuw %struct.Abc_Obj_t_, ptr %5, i32 0, i32 0
  %7 = load ptr, ptr %6, align 8, !tbaa !92
  %8 = getelementptr inbounds nuw %struct.Abc_Ntk_t_, ptr %7, i32 0, i32 5
  %9 = load ptr, ptr %8, align 8, !tbaa !14
  %10 = getelementptr inbounds nuw %struct.Vec_Ptr_t_, ptr %9, i32 0, i32 2
  %11 = load ptr, ptr %10, align 8, !tbaa !58
  %12 = load ptr, ptr %3, align 8, !tbaa !29
  %13 = getelementptr inbounds nuw %struct.Abc_Obj_t_, ptr %12, i32 0, i32 4
  %14 = getelementptr inbounds nuw %struct.Vec_Int_t_, ptr %13, i32 0, i32 2
  %15 = load ptr, ptr %14, align 8, !tbaa !69
  %16 = load i32, ptr %4, align 4, !tbaa !12
  %17 = sext i32 %16 to i64
  %18 = getelementptr inbounds i32, ptr %15, i64 %17
  %19 = load i32, ptr %18, align 4, !tbaa !12
  %20 = sext i32 %19 to i64
  %21 = getelementptr inbounds ptr, ptr %11, i64 %20
  %22 = load ptr, ptr %21, align 8, !tbaa !56
  ret ptr %22
}

; Function Attrs: inlinehint nounwind uwtable
define internal i32 @Abc_ObjFaninNum(ptr noundef %0) #2 {
  %2 = alloca ptr, align 8
  store ptr %0, ptr %2, align 8, !tbaa !29
  %3 = load ptr, ptr %2, align 8, !tbaa !29
  %4 = getelementptr inbounds nuw %struct.Abc_Obj_t_, ptr %3, i32 0, i32 4
  %5 = getelementptr inbounds nuw %struct.Vec_Int_t_, ptr %4, i32 0, i32 1
  %6 = load i32, ptr %5, align 4, !tbaa !96
  ret i32 %6
}

; Function Attrs: nounwind uwtable
define void @Abc_NodeSplitLarge(ptr noundef %0) #0 {
  %2 = alloca ptr, align 8
  %3 = alloca ptr, align 8
  %4 = alloca ptr, align 8
  %5 = alloca ptr, align 8
  %6 = alloca i32, align 4
  %7 = alloca i32, align 4
  %8 = alloca i32, align 4
  %9 = alloca i32, align 4
  store ptr %0, ptr %2, align 8, !tbaa !29
  call void @llvm.lifetime.start.p0(i64 8, ptr %3) #10
  call void @llvm.lifetime.start.p0(i64 8, ptr %4) #10
  call void @llvm.lifetime.start.p0(i64 8, ptr %5) #10
  call void @llvm.lifetime.start.p0(i64 4, ptr %6) #10
  call void @llvm.lifetime.start.p0(i64 4, ptr %7) #10
  %10 = load ptr, ptr %2, align 8, !tbaa !29
  %11 = call i32 @Abc_ObjFaninNum(ptr noundef %10)
  store i32 %11, ptr %7, align 4, !tbaa !12
  call void @llvm.lifetime.start.p0(i64 4, ptr %8) #10
  call void @llvm.lifetime.start.p0(i64 4, ptr %9) #10
  %12 = load ptr, ptr %2, align 8, !tbaa !29
  %13 = getelementptr inbounds nuw %struct.Abc_Obj_t_, ptr %12, i32 0, i32 6
  %14 = load ptr, ptr %13, align 8, !tbaa !31
  %15 = call i32 @Abc_SopGetCubeNum(ptr noundef %14)
  store i32 %15, ptr %9, align 4, !tbaa !12
  %16 = load ptr, ptr %2, align 8, !tbaa !29
  %17 = getelementptr inbounds nuw %struct.Abc_Obj_t_, ptr %16, i32 0, i32 0
  %18 = load ptr, ptr %17, align 8, !tbaa !92
  %19 = load ptr, ptr %2, align 8, !tbaa !29
  %20 = call ptr @Abc_NtkDupObj(ptr noundef %18, ptr noundef %19, i32 noundef 0)
  store ptr %20, ptr %3, align 8, !tbaa !29
  %21 = load ptr, ptr %2, align 8, !tbaa !29
  %22 = getelementptr inbounds nuw %struct.Abc_Obj_t_, ptr %21, i32 0, i32 0
  %23 = load ptr, ptr %22, align 8, !tbaa !92
  %24 = load ptr, ptr %2, align 8, !tbaa !29
  %25 = call ptr @Abc_NtkDupObj(ptr noundef %23, ptr noundef %24, i32 noundef 0)
  store ptr %25, ptr %4, align 8, !tbaa !29
  store i32 0, ptr %8, align 4, !tbaa !12
  br label %26

26:                                               ; preds = %40, %1
  %27 = load i32, ptr %8, align 4, !tbaa !12
  %28 = load ptr, ptr %2, align 8, !tbaa !29
  %29 = call i32 @Abc_ObjFaninNum(ptr noundef %28)
  %30 = icmp slt i32 %27, %29
  br i1 %30, label %31, label %35

31:                                               ; preds = %26
  %32 = load ptr, ptr %2, align 8, !tbaa !29
  %33 = load i32, ptr %8, align 4, !tbaa !12
  %34 = call ptr @Abc_ObjFanin(ptr noundef %32, i32 noundef %33)
  store ptr %34, ptr %5, align 8, !tbaa !29
  br label %35

35:                                               ; preds = %31, %26
  %36 = phi i1 [ false, %26 ], [ true, %31 ]
  br i1 %36, label %37, label %43

37:                                               ; preds = %35
  %38 = load ptr, ptr %3, align 8, !tbaa !29
  %39 = load ptr, ptr %5, align 8, !tbaa !29
  call void @Abc_ObjAddFanin(ptr noundef %38, ptr noundef %39)
  br label %40

40:                                               ; preds = %37
  %41 = load i32, ptr %8, align 4, !tbaa !12
  %42 = add nsw i32 %41, 1
  store i32 %42, ptr %8, align 4, !tbaa !12
  br label %26, !llvm.loop !93

43:                                               ; preds = %35
  store i32 0, ptr %8, align 4, !tbaa !12
  br label %44

44:                                               ; preds = %58, %43
  %45 = load i32, ptr %8, align 4, !tbaa !12
  %46 = load ptr, ptr %2, align 8, !tbaa !29
  %47 = call i32 @Abc_ObjFaninNum(ptr noundef %46)
  %48 = icmp slt i32 %45, %47
  br i1 %48, label %49, label %53

49:                                               ; preds = %44
  %50 = load ptr, ptr %2, align 8, !tbaa !29
  %51 = load i32, ptr %8, align 4, !tbaa !12
  %52 = call ptr @Abc_ObjFanin(ptr noundef %50, i32 noundef %51)
  store ptr %52, ptr %5, align 8, !tbaa !29
  br label %53

53:                                               ; preds = %49, %44
  %54 = phi i1 [ false, %44 ], [ true, %49 ]
  br i1 %54, label %55, label %61

55:                                               ; preds = %53
  %56 = load ptr, ptr %4, align 8, !tbaa !29
  %57 = load ptr, ptr %5, align 8, !tbaa !29
  call void @Abc_ObjAddFanin(ptr noundef %56, ptr noundef %57)
  br label %58

58:                                               ; preds = %55
  %59 = load i32, ptr %8, align 4, !tbaa !12
  %60 = add nsw i32 %59, 1
  store i32 %60, ptr %8, align 4, !tbaa !12
  br label %44, !llvm.loop !94

61:                                               ; preds = %53
  %62 = load ptr, ptr %2, align 8, !tbaa !29
  call void @Abc_ObjRemoveFanins(ptr noundef %62)
  %63 = load ptr, ptr %2, align 8, !tbaa !29
  %64 = load ptr, ptr %3, align 8, !tbaa !29
  call void @Abc_ObjAddFanin(ptr noundef %63, ptr noundef %64)
  %65 = load ptr, ptr %2, align 8, !tbaa !29
  %66 = load ptr, ptr %4, align 8, !tbaa !29
  call void @Abc_ObjAddFanin(ptr noundef %65, ptr noundef %66)
  %67 = load ptr, ptr %2, align 8, !tbaa !29
  %68 = getelementptr inbounds nuw %struct.Abc_Obj_t_, ptr %67, i32 0, i32 0
  %69 = load ptr, ptr %68, align 8, !tbaa !92
  %70 = getelementptr inbounds nuw %struct.Abc_Ntk_t_, ptr %69, i32 0, i32 30
  %71 = load ptr, ptr %70, align 8, !tbaa !95
  %72 = call ptr @Abc_SopCreateOr(ptr noundef %71, i32 noundef 2, ptr noundef null)
  %73 = load ptr, ptr %2, align 8, !tbaa !29
  %74 = getelementptr inbounds nuw %struct.Abc_Obj_t_, ptr %73, i32 0, i32 6
  store ptr %72, ptr %74, align 8, !tbaa !31
  %75 = load i32, ptr %9, align 4, !tbaa !12
  %76 = sdiv i32 %75, 2
  %77 = load i32, ptr %7, align 4, !tbaa !12
  %78 = add nsw i32 %77, 3
  %79 = mul nsw i32 %76, %78
  store i32 %79, ptr %6, align 4, !tbaa !12
  %80 = load ptr, ptr %3, align 8, !tbaa !29
  %81 = getelementptr inbounds nuw %struct.Abc_Obj_t_, ptr %80, i32 0, i32 6
  %82 = load ptr, ptr %81, align 8, !tbaa !31
  %83 = load i32, ptr %6, align 4, !tbaa !12
  %84 = sext i32 %83 to i64
  %85 = getelementptr inbounds i8, ptr %82, i64 %84
  store i8 0, ptr %85, align 1, !tbaa !31
  %86 = load ptr, ptr %4, align 8, !tbaa !29
  %87 = getelementptr inbounds nuw %struct.Abc_Obj_t_, ptr %86, i32 0, i32 6
  %88 = load ptr, ptr %87, align 8, !tbaa !31
  %89 = load i32, ptr %6, align 4, !tbaa !12
  %90 = sext i32 %89 to i64
  %91 = getelementptr inbounds i8, ptr %88, i64 %90
  %92 = load ptr, ptr %4, align 8, !tbaa !29
  %93 = getelementptr inbounds nuw %struct.Abc_Obj_t_, ptr %92, i32 0, i32 6
  store ptr %91, ptr %93, align 8, !tbaa !31
  call void @llvm.lifetime.end.p0(i64 4, ptr %9) #10
  call void @llvm.lifetime.end.p0(i64 4, ptr %8) #10
  call void @llvm.lifetime.end.p0(i64 4, ptr %7) #10
  call void @llvm.lifetime.end.p0(i64 4, ptr %6) #10
  call void @llvm.lifetime.end.p0(i64 8, ptr %5) #10
  call void @llvm.lifetime.end.p0(i64 8, ptr %4) #10
  call void @llvm.lifetime.end.p0(i64 8, ptr %3) #10
  ret void
}