; Function Attrs: nounwind uwtable
define void @Abc_NodeSplitLarge(ptr noundef %0) local_unnamed_addr #0 {
  %2 = getelementptr i8, ptr %0, i64 28
  %.val = load i32, ptr %2, align 4, !tbaa !78
  %3 = getelementptr inbounds nuw i8, ptr %0, i64 56
  %4 = load ptr, ptr %3, align 8, !tbaa !35
  %5 = tail call i32 @Abc_SopGetCubeNum(ptr noundef %4) #20
  %6 = load ptr, ptr %0, align 8, !tbaa !79
  %7 = tail call ptr @Abc_NtkDupObj(ptr noundef %6, ptr noundef nonnull %0, i32 noundef 0) #20
  %8 = load ptr, ptr %0, align 8, !tbaa !79
  %9 = tail call ptr @Abc_NtkDupObj(ptr noundef %8, ptr noundef nonnull %0, i32 noundef 0) #20
  %.val3541 = load i32, ptr %2, align 4, !tbaa !78
  %10 = icmp sgt i32 %.val3541, 0
  br i1 %10, label %.lr.ph, label %.critedge2

.lr.ph:                                           ; preds = %1
  %11 = getelementptr i8, ptr %0, i64 32
  br label %14

.critedge.preheader:                              ; preds = %14
  %12 = icmp sgt i32 %.val35, 0
  br i1 %12, label %.lr.ph45, label %.critedge2

.lr.ph45:                                         ; preds = %.critedge.preheader
  %13 = getelementptr i8, ptr %0, i64 32
  br label %.critedge

14:                                               ; preds = %.lr.ph, %14
  %indvars.iv = phi i64 [ 0, %.lr.ph ], [ %indvars.iv.next, %14 ]
  %.val37 = load ptr, ptr %0, align 8, !tbaa !79
  %.val38 = load ptr, ptr %11, align 8, !tbaa !55
  %15 = getelementptr i8, ptr %.val37, i64 32
  %.val37.val = load ptr, ptr %15, align 8, !tbaa !17
  %16 = getelementptr i8, ptr %.val37.val, i64 8
  %.val37.val.val = load ptr, ptr %16, align 8, !tbaa !33
  %17 = getelementptr inbounds nuw i32, ptr %.val38, i64 %indvars.iv
  %18 = load i32, ptr %17, align 4, !tbaa !36
  %19 = sext i32 %18 to i64
  %20 = getelementptr inbounds ptr, ptr %.val37.val.val, i64 %19
  %21 = load ptr, ptr %20, align 8, !tbaa !34
  tail call void @Abc_ObjAddFanin(ptr noundef %7, ptr noundef %21) #20
  %indvars.iv.next = add nuw nsw i64 %indvars.iv, 1
  %.val35 = load i32, ptr %2, align 4, !tbaa !78
  %22 = sext i32 %.val35 to i64
  %23 = icmp slt i64 %indvars.iv.next, %22
  br i1 %23, label %14, label %.critedge.preheader, !llvm.loop !80

.critedge:                                        ; preds = %.lr.ph45, %.critedge
  %indvars.iv47 = phi i64 [ 0, %.lr.ph45 ], [ %indvars.iv.next48, %.critedge ]
  %.val39 = load ptr, ptr %0, align 8, !tbaa !79
  %.val40 = load ptr, ptr %13, align 8, !tbaa !55
  %24 = getelementptr i8, ptr %.val39, i64 32
  %.val39.val = load ptr, ptr %24, align 8, !tbaa !17
  %25 = getelementptr i8, ptr %.val39.val, i64 8
  %.val39.val.val = load ptr, ptr %25, align 8, !tbaa !33
  %26 = getelementptr inbounds nuw i32, ptr %.val40, i64 %indvars.iv47
  %27 = load i32, ptr %26, align 4, !tbaa !36
  %28 = sext i32 %27 to i64
  %29 = getelementptr inbounds ptr, ptr %.val39.val.val, i64 %28
  %30 = load ptr, ptr %29, align 8, !tbaa !34
  tail call void @Abc_ObjAddFanin(ptr noundef %9, ptr noundef %30) #20
  %indvars.iv.next48 = add nuw nsw i64 %indvars.iv47, 1
  %.val36 = load i32, ptr %2, align 4, !tbaa !78
  %31 = sext i32 %.val36 to i64
  %32 = icmp slt i64 %indvars.iv.next48, %31
  br i1 %32, label %.critedge, label %.critedge2, !llvm.loop !81

.critedge2:                                       ; preds = %.critedge, %1, %.critedge.preheader
  tail call void @Abc_ObjRemoveFanins(ptr noundef nonnull %0) #20
  tail call void @Abc_ObjAddFanin(ptr noundef nonnull %0, ptr noundef %7) #20
  tail call void @Abc_ObjAddFanin(ptr noundef nonnull %0, ptr noundef %9) #20
  %33 = load ptr, ptr %0, align 8, !tbaa !79
  %34 = getelementptr inbounds nuw i8, ptr %33, i64 256
  %35 = load ptr, ptr %34, align 8, !tbaa !82
  %36 = tail call ptr @Abc_SopCreateOr(ptr noundef %35, i32 noundef 2, ptr noundef null) #20
  store ptr %36, ptr %3, align 8, !tbaa !35
  %37 = sdiv i32 %5, 2
  %38 = add nsw i32 %.val, 3
  %39 = mul nsw i32 %37, %38
  %40 = getelementptr inbounds nuw i8, ptr %7, i64 56
  %41 = load ptr, ptr %40, align 8, !tbaa !35
  %42 = sext i32 %39 to i64
  %43 = getelementptr inbounds i8, ptr %41, i64 %42
  store i8 0, ptr %43, align 1, !tbaa !35
  %44 = getelementptr inbounds nuw i8, ptr %9, i64 56
  %45 = load ptr, ptr %44, align 8, !tbaa !35
  %46 = getelementptr inbounds i8, ptr %45, i64 %42
  store ptr %46, ptr %44, align 8, !tbaa !35
  ret void
}